target datalayout = "e-m:e-p270:32:32-p271:32:32-p272:64:64-i64:64-i128:128-f80:128-n8:16:32:64-S128"
target triple = "x86_64-pc-linux-gnu"

; Function Attrs: nounwind uwtable
define ptr @Fraig_NodeOr(ptr noundef %0, ptr noundef %1, ptr noundef %2) #0 {
  %4 = alloca ptr, align 8
  %5 = alloca ptr, align 8
  %6 = alloca ptr, align 8
  store ptr %0, ptr %4, align 8, !tbaa !3
  store ptr %1, ptr %5, align 8, !tbaa !30
  store ptr %2, ptr %6, align 8, !tbaa !30
  %7 = load ptr, ptr %4, align 8, !tbaa !3
  %8 = load ptr, ptr %5, align 8, !tbaa !30
  %9 = ptrtoint ptr %8 to i64
  %10 = xor i64 %9, 1
  %11 = inttoptr i64 %10 to ptr
  %12 = load ptr, ptr %6, align 8, !tbaa !30
  %13 = ptrtoint ptr %12 to i64
  %14 = xor i64 %13, 1
  %15 = inttoptr i64 %14 to ptr
  %16 = call ptr @Fraig_NodeAndCanon(ptr noundef %7, ptr noundef %11, ptr noundef %15)
  %17 = ptrtoint ptr %16 to i64
  %18 = xor i64 %17, 1
  %19 = inttoptr i64 %18 to ptr
  ret ptr %19
}